; Function Attrs: null_pointer_is_valid sspstrong uwtable
define internal fastcc range(i32 24, 26) i32 @dissect_cs_rsp(ptr noundef %0, ptr noundef %1, i32 noundef range(i32 3, 5) %2) unnamed_addr #0 {
  %4 = load i32, ptr @hf_control_cs_rsp_config_id, align 4
  %5 = tail call ptr @proto_tree_add_item(ptr noundef %1, i32 noundef %4, ptr noundef %0, i32 noundef %2, i32 noundef 1, i32 noundef -2147483648)
  %6 = load i32, ptr @hf_control_cs_rsp_rfu1, align 4
  %7 = tail call ptr @proto_tree_add_item(ptr noundef %1, i32 noundef %6, ptr noundef %0, i32 noundef %2, i32 noundef 1, i32 noundef -2147483648)
  %8 = add nuw nsw i32 %2, 1
  %9 = load i32, ptr @hf_control_cs_rsp_conn_event_count, align 4
  %10 = tail call ptr @proto_tree_add_item(ptr noundef %1, i32 noundef %9, ptr noundef %0, i32 noundef %8, i32 noundef 2, i32 noundef -2147483648)
  %11 = add nuw nsw i32 %2, 3
  %12 = load i32, ptr @hf_control_cs_rsp_offset_min, align 4
  %13 = tail call ptr @proto_tree_add_item(ptr noundef %1, i32 noundef %12, ptr noundef %0, i32 noundef %11, i32 noundef 3, i32 noundef -2147483648)
  %14 = add nuw nsw i32 %2, 6
  %15 = load i32, ptr @hf_control_cs_rsp_offset_max, align 4
  %16 = tail call ptr @proto_tree_add_item(ptr noundef %1, i32 noundef %15, ptr noundef %0, i32 noundef %14, i32 noundef 3, i32 noundef -2147483648)
  %17 = add nuw nsw i32 %2, 9
  %18 = load i32, ptr @hf_control_cs_rsp_event_interval, align 4
  %19 = tail call ptr @proto_tree_add_item(ptr noundef %1, i32 noundef %18, ptr noundef %0, i32 noundef %17, i32 noundef 2, i32 noundef -2147483648)
  %20 = add nuw nsw i32 %2, 11
  %21 = load i32, ptr @hf_control_cs_rsp_subevents_per_event, align 4
  %22 = tail call ptr @proto_tree_add_item(ptr noundef %1, i32 noundef %21, ptr noundef %0, i32 noundef %20, i32 noundef 1, i32 noundef -2147483648)
  %23 = add nuw nsw i32 %2, 12
  %24 = load i32, ptr @hf_control_cs_rsp_subevent_interval, align 4
  %25 = tail call ptr @proto_tree_add_item(ptr noundef %1, i32 noundef %24, ptr noundef %0, i32 noundef %23, i32 noundef 2, i32 noundef -2147483648)
  %26 = add nuw nsw i32 %2, 14
  %27 = load i32, ptr @hf_control_cs_rsp_subevent_len, align 4
  %28 = tail call ptr @proto_tree_add_item(ptr noundef %1, i32 noundef %27, ptr noundef %0, i32 noundef %26, i32 noundef 3, i32 noundef -2147483648)
  %29 = add nuw nsw i32 %2, 17
  %30 = load i32, ptr @hf_control_cs_rsp_aci, align 4
  %31 = tail call ptr @proto_tree_add_item(ptr noundef %1, i32 noundef %30, ptr noundef %0, i32 noundef %29, i32 noundef 1, i32 noundef -2147483648)
  %32 = add nuw nsw i32 %2, 18
  %33 = load i32, ptr @hf_control_cs_rsp_phy, align 4
  %34 = tail call ptr @proto_tree_add_item(ptr noundef %1, i32 noundef %33, ptr noundef %0, i32 noundef %32, i32 noundef 1, i32 noundef -2147483648)
  %35 = add nuw nsw i32 %2, 19
  %36 = load i32, ptr @hf_control_cs_rsp_pwr_delta, align 4
  %37 = tail call ptr @proto_tree_add_item(ptr noundef %1, i32 noundef %36, ptr noundef %0, i32 noundef %35, i32 noundef 1, i32 noundef -2147483648)
  %38 = add nuw nsw i32 %2, 20
  %39 = load i32, ptr @hf_control_cs_rsp_rfu2, align 4
  %40 = tail call ptr @proto_tree_add_item(ptr noundef %1, i32 noundef %39, ptr noundef %0, i32 noundef %38, i32 noundef 1, i32 noundef -2147483648)
  %41 = add nuw nsw i32 %2, 21
  ret i32 %41
}